target datalayout = "e-m:e-p270:32:32-p271:32:32-p272:64:64-i64:64-i128:128-f80:128-n8:16:32:64-S128"
target triple = "x86_64-pc-linux-gnu"

%struct.ImGuiTabItem = type <{ i32, i32, i32, i32, float, float, float, float, i32, i16, i16, i8, [3 x i8] }>

; Function Attrs: inlinehint mustprogress nounwind uwtable
define internal noundef i32 @_ZL20TabItemGetSectionIdxPK12ImGuiTabItem(ptr noundef %0) #2 {
  %2 = alloca ptr, align 8
  store ptr %0, ptr %2, align 8, !tbaa !849
  %3 = load ptr, ptr %2, align 8, !tbaa !849
  %4 = getelementptr inbounds nuw %struct.ImGuiTabItem, ptr %3, i32 0, i32 1
  %5 = load i32, ptr %4, align 4, !tbaa !867
  %6 = and i32 %5, 64
  %7 = icmp ne i32 %6, 0
  br i1 %7, label %8, label %9

8:                                                ; preds = %1
  br label %16

9:                                                ; preds = %1
  %10 = load ptr, ptr %2, align 8, !tbaa !849
  %11 = getelementptr inbounds nuw %struct.ImGuiTabItem, ptr %10, i32 0, i32 1
  %12 = load i32, ptr %11, align 4, !tbaa !867
  %13 = and i32 %12, 128
  %14 = icmp ne i32 %13, 0
  %15 = select i1 %14, i32 2, i32 1
  br label %16

16:                                               ; preds = %9, %8
  %17 = phi i32 [ 0, %8 ], [ %15, %9 ]
  ret i32 %17
}

; Function Attrs: mustprogress nounwind uwtable
define internal noundef i32 @_ZL24TabItemComparerBySectionPKvS0_(ptr noundef %0, ptr noundef %1) #4 {
  %3 = alloca i32, align 4
  %4 = alloca ptr, align 8
  %5 = alloca ptr, align 8
  %6 = alloca ptr, align 8
  %7 = alloca ptr, align 8
  %8 = alloca i32, align 4
  %9 = alloca i32, align 4
  %10 = alloca i32, align 4
  store ptr %0, ptr %4, align 8, !tbaa !255
  store ptr %1, ptr %5, align 8, !tbaa !255
  call void @llvm.lifetime.start.p0(i64 8, ptr %6) #17
  %11 = load ptr, ptr %4, align 8, !tbaa !255
  store ptr %11, ptr %6, align 8, !tbaa !849
  call void @llvm.lifetime.start.p0(i64 8, ptr %7) #17
  %12 = load ptr, ptr %5, align 8, !tbaa !255
  store ptr %12, ptr %7, align 8, !tbaa !849
  call void @llvm.lifetime.start.p0(i64 4, ptr %8) #17
  %13 = load ptr, ptr %6, align 8, !tbaa !849
  %14 = call noundef i32 @_ZL20TabItemGetSectionIdxPK12ImGuiTabItem(ptr noundef %13)
  store i32 %14, ptr %8, align 4, !tbaa !9
  call void @llvm.lifetime.start.p0(i64 4, ptr %9) #17
  %15 = load ptr, ptr %7, align 8, !tbaa !849
  %16 = call noundef i32 @_ZL20TabItemGetSectionIdxPK12ImGuiTabItem(ptr noundef %15)
  store i32 %16, ptr %9, align 4, !tbaa !9
  %17 = load i32, ptr %8, align 4, !tbaa !9
  %18 = load i32, ptr %9, align 4, !tbaa !9
  %19 = icmp ne i32 %17, %18
  br i1 %19, label %20, label %24

20:                                               ; preds = %2
  %21 = load i32, ptr %8, align 4, !tbaa !9
  %22 = load i32, ptr %9, align 4, !tbaa !9
  %23 = sub nsw i32 %21, %22
  store i32 %23, ptr %3, align 4
  store i32 1, ptr %10, align 4
  br label %34

24:                                               ; preds = %2
  %25 = load ptr, ptr %6, align 8, !tbaa !849
  %26 = getelementptr inbounds nuw %struct.ImGuiTabItem, ptr %25, i32 0, i32 10
  %27 = load i16, ptr %26, align 2, !tbaa !860
  %28 = sext i16 %27 to i32
  %29 = load ptr, ptr %7, align 8, !tbaa !849
  %30 = getelementptr inbounds nuw %struct.ImGuiTabItem, ptr %29, i32 0, i32 10
  %31 = load i16, ptr %30, align 2, !tbaa !860
  %32 = sext i16 %31 to i32
  %33 = sub nsw i32 %28, %32
  store i32 %33, ptr %3, align 4
  store i32 1, ptr %10, align 4
  br label %34

34:                                               ; preds = %24, %20
  call void @llvm.lifetime.end.p0(i64 4, ptr %9) #17
  call void @llvm.lifetime.end.p0(i64 4, ptr %8) #17
  call void @llvm.lifetime.end.p0(i64 8, ptr %7) #17
  call void @llvm.lifetime.end.p0(i64 8, ptr %6) #17
  %35 = load i32, ptr %3, align 4
  ret i32 %35
}