; Function Attrs: mustprogress nofree norecurse nosync nounwind willreturn memory(argmem: read) uwtable
define internal noundef range(i32 -65535, 65536) i32 @_ZL24TabItemComparerBySectionPKvS0_(ptr noundef readonly captures(none) %0, ptr noundef readonly captures(none) %1) #11 {
  %3 = getelementptr i8, ptr %0, i64 4
  %.val12 = load i32, ptr %3, align 4, !tbaa !759
  %4 = and i32 %.val12, 64
  %.not.i = icmp eq i32 %4, 0
  %5 = and i32 %.val12, 128
  %.not2.i = icmp eq i32 %5, 0
  %6 = select i1 %.not2.i, i32 1, i32 2
  %7 = select i1 %.not.i, i32 %6, i32 0
  %8 = getelementptr i8, ptr %1, i64 4
  %.val = load i32, ptr %8, align 4, !tbaa !759
  %9 = and i32 %.val, 64
  %.not.i13 = icmp eq i32 %9, 0
  %10 = and i32 %.val, 128
  %.not2.i14 = icmp eq i32 %10, 0
  %11 = select i1 %.not2.i14, i32 1, i32 2
  %12 = select i1 %.not.i13, i32 %11, i32 0
  %.not = icmp eq i32 %7, %12
  br i1 %.not, label %15, label %13

13:                                               ; preds = %2
  %14 = sub nsw i32 %7, %12
  br label %23

15:                                               ; preds = %2
  %16 = getelementptr inbounds nuw i8, ptr %0, i64 38
  %17 = load i16, ptr %16, align 2, !tbaa !758
  %18 = sext i16 %17 to i32
  %19 = getelementptr inbounds nuw i8, ptr %1, i64 38
  %20 = load i16, ptr %19, align 2, !tbaa !758
  %21 = sext i16 %20 to i32
  %22 = sub nsw i32 %18, %21
  br label %23

23:                                               ; preds = %15, %13
  %.0 = phi i32 [ %14, %13 ], [ %22, %15 ]
  ret i32 %.0
}